target datalayout = "e-m:e-p270:32:32-p271:32:32-p272:64:64-i64:64-i128:128-f80:128-n8:16:32:64-S128"
target triple = "x86_64-pc-linux-gnu"

; Function Attrs: cold nounwind optsize uwtable
define internal i32 @alaw2linear(i8 noundef zeroext %0) #0 {
  %2 = alloca i8, align 1
  %3 = alloca i32, align 4
  %4 = alloca i32, align 4
  store i8 %0, ptr %2, align 1, !tbaa !67
  call void @llvm.lifetime.start.p0(i64 4, ptr %3) #8
  call void @llvm.lifetime.start.p0(i64 4, ptr %4) #8
  %5 = load i8, ptr %2, align 1, !tbaa !67
  %6 = zext i8 %5 to i32
  %7 = xor i32 %6, 85
  %8 = trunc i32 %7 to i8
  store i8 %8, ptr %2, align 1, !tbaa !67
  %9 = load i8, ptr %2, align 1, !tbaa !67
  %10 = zext i8 %9 to i32
  %11 = and i32 %10, 15
  store i32 %11, ptr %3, align 4, !tbaa !32
  %12 = load i8, ptr %2, align 1, !tbaa !67
  %13 = zext i8 %12 to i32
  %14 = and i32 %13, 112
  %15 = lshr i32 %14, 4
  store i32 %15, ptr %4, align 4, !tbaa !32
  %16 = load i32, ptr %4, align 4, !tbaa !32
  %17 = icmp ne i32 %16, 0
  br i1 %17, label %18, label %27

18:                                               ; preds = %1
  %19 = load i32, ptr %3, align 4, !tbaa !32
  %20 = load i32, ptr %3, align 4, !tbaa !32
  %21 = add nsw i32 %19, %20
  %22 = add nsw i32 %21, 1
  %23 = add nsw i32 %22, 32
  %24 = load i32, ptr %4, align 4, !tbaa !32
  %25 = add nsw i32 %24, 2
  %26 = shl i32 %23, %25
  store i32 %26, ptr %3, align 4, !tbaa !32
  br label %33

27:                                               ; preds = %1
  %28 = load i32, ptr %3, align 4, !tbaa !32
  %29 = load i32, ptr %3, align 4, !tbaa !32
  %30 = add nsw i32 %28, %29
  %31 = add nsw i32 %30, 1
  %32 = shl i32 %31, 3
  store i32 %32, ptr %3, align 4, !tbaa !32
  br label %33

33:                                               ; preds = %27, %18
  %34 = load i8, ptr %2, align 1, !tbaa !67
  %35 = zext i8 %34 to i32
  %36 = and i32 %35, 128
  %37 = icmp ne i32 %36, 0
  br i1 %37, label %38, label %40

38:                                               ; preds = %33
  %39 = load i32, ptr %3, align 4, !tbaa !32
  br label %43

40:                                               ; preds = %33
  %41 = load i32, ptr %3, align 4, !tbaa !32
  %42 = sub nsw i32 0, %41
  br label %43

43:                                               ; preds = %40, %38
  %44 = phi i32 [ %39, %38 ], [ %42, %40 ]
  call void @llvm.lifetime.end.p0(i64 4, ptr %4) #8
  call void @llvm.lifetime.end.p0(i64 4, ptr %3) #8
  ret i32 %44
}