; Function Attrs: cold mustprogress nofree norecurse nosync nounwind optsize willreturn memory(none) uwtable
define internal range(i32 -32256, 32257) i32 @alaw2linear(i8 noundef zeroext %0) #3 {
  %2 = xor i8 %0, 85
  %3 = zext i8 %2 to i32
  %4 = and i32 %3, 15
  %5 = lshr i32 %3, 4
  %6 = and i32 %5, 7
  %.not = icmp eq i32 %6, 0
  br i1 %.not, label %12, label %7

7:                                                ; preds = %1
  %8 = shl nuw nsw i32 %4, 1
  %9 = or disjoint i32 %8, 33
  %10 = add nuw nsw i32 %6, 2
  %11 = shl nuw nsw i32 %9, %10
  br label %15

12:                                               ; preds = %1
  %13 = shl nuw nsw i32 %4, 4
  %14 = or disjoint i32 %13, 8
  br label %15

15:                                               ; preds = %12, %7
  %.0 = phi i32 [ %11, %7 ], [ %14, %12 ]
  %16 = sub nsw i32 0, %.0
  %.not1314 = icmp slt i8 %0, 0
  %17 = select i1 %.not1314, i32 %.0, i32 %16
  ret i32 %17
}